; Function Attrs: mustprogress nounwind uwtable
define internal fastcc void @_ZNSt10_HashtableISt6vectorImSaImEESt4pairIKS2_N32pxrInternal_v0_24__pxrReserved__12_GLOBAL__N_116_MallocStackDataEESaIS8_ENSt8__detail10_Select1stESt8equal_toIS2_ENS6_16_HashMallocStackENSA_18_Mod_range_hashingENSA_20_Default_ranged_hashENSA_20_Prime_rehash_policyENSA_17_Hashtable_traitsILb1ELb0ELb1EEEE12_Scoped_nodeD2Ev(ptr %.8.val) unnamed_addr #4 align 2 personality ptr @__gxx_personality_v0 {
  %.not = icmp eq ptr %.8.val, null
  br i1 %.not, label %8, label %1

1:                                                ; preds = %0
  %2 = getelementptr inbounds i8, ptr %.8.val, i64 8
  %.val.i = load ptr, ptr %2, align 8
  %.not.i.i.i.i.i.i.i = icmp eq ptr %.val.i, null
  br i1 %.not.i.i.i.i.i.i.i, label %_ZNSt8__detail16_Hashtable_allocISaINS_10_Hash_nodeISt4pairIKSt6vectorImSaImEEN32pxrInternal_v0_24__pxrReserved__12_GLOBAL__N_116_MallocStackDataEELb1EEEEE18_M_deallocate_nodeEPSB_.exit, label %3

3:                                                ; preds = %1
  %4 = getelementptr i8, ptr %.8.val, i64 24
  %.val3.i = load ptr, ptr %4, align 8
  %5 = ptrtoint ptr %.val3.i to i64
  %6 = ptrtoint ptr %.val.i to i64
  %7 = sub i64 %5, %6
  tail call void @_ZdlPvm(ptr noundef nonnull %.val.i, i64 noundef %7) #27
  br label %_ZNSt8__detail16_Hashtable_allocISaINS_10_Hash_nodeISt4pairIKSt6vectorImSaImEEN32pxrInternal_v0_24__pxrReserved__12_GLOBAL__N_116_MallocStackDataEELb1EEEEE18_M_deallocate_nodeEPSB_.exit

_ZNSt8__detail16_Hashtable_allocISaINS_10_Hash_nodeISt4pairIKSt6vectorImSaImEEN32pxrInternal_v0_24__pxrReserved__12_GLOBAL__N_116_MallocStackDataEELb1EEEEE18_M_deallocate_nodeEPSB_.exit: ; preds = %1, %3
  tail call void @_ZdlPvm(ptr noundef nonnull %.8.val, i64 noundef 64) #27
  br label %8

8:                                                ; preds = %_ZNSt8__detail16_Hashtable_allocISaINS_10_Hash_nodeISt4pairIKSt6vectorImSaImEEN32pxrInternal_v0_24__pxrReserved__12_GLOBAL__N_116_MallocStackDataEELb1EEEEE18_M_deallocate_nodeEPSB_.exit, %0
  ret void
}